target datalayout = "e-m:e-p270:32:32-p271:32:32-p272:64:64-i64:64-i128:128-f80:128-n8:16:32:64-S128"
target triple = "x86_64-pc-linux-gnu"

%struct.pollfd = type { i32, i16, i16 }
%struct.URLContext = type { ptr, ptr, ptr, ptr, i32, i32, i32, i32, %struct.AVIOInterruptCB, i64, ptr, ptr, i32 }
%struct.AVIOInterruptCB = type { ptr, ptr }

@.str.2 = private unnamed_addr constant [27 x i8] c"ff_socket_nonblock failed\0A\00", align 1
@.str.3 = private unnamed_addr constant [51 x i8] c"Connection to %s failed (%s), trying next address\0A\00", align 1
@.str.4 = private unnamed_addr constant [29 x i8] c"Connection to %s failed: %s\0A\00", align 1

; Function Attrs: inlinehint nounwind uwtable
define internal ptr @av_make_error_string(ptr noundef %0, i64 noundef %1, i32 noundef %2) #4 {
  %4 = alloca ptr, align 8
  %5 = alloca i64, align 8
  %6 = alloca i32, align 4
  store ptr %0, ptr %4, align 8, !tbaa !40
  store i64 %1, ptr %5, align 8, !tbaa !13
  store i32 %2, ptr %6, align 4, !tbaa !4
  %7 = load i32, ptr %6, align 4, !tbaa !4
  %8 = load ptr, ptr %4, align 8, !tbaa !40
  %9 = load i64, ptr %5, align 8, !tbaa !13
  %10 = call i32 @av_strerror(i32 noundef %7, ptr noundef %8, i64 noundef %9)
  %11 = load ptr, ptr %4, align 8, !tbaa !40
  ret ptr %11
}

; Function Attrs: nounwind uwtable
define i32 @ff_listen_connect(i32 noundef %0, ptr noundef %1, i32 noundef %2, i32 noundef %3, ptr noundef %4, i32 noundef %5) #0 {
  %7 = alloca i32, align 4
  %8 = alloca i32, align 4
  %9 = alloca ptr, align 8
  %10 = alloca i32, align 4
  %11 = alloca i32, align 4
  %12 = alloca ptr, align 8
  %13 = alloca i32, align 4
  %14 = alloca %struct.pollfd, align 4
  %15 = alloca i32, align 4
  %16 = alloca i32, align 4
  %17 = alloca i32, align 4
  %18 = alloca [64 x i8], align 1
  %19 = alloca [64 x i8], align 1
  store i32 %0, ptr %8, align 4, !tbaa !4
  store ptr %1, ptr %9, align 8, !tbaa !18
  store i32 %2, ptr %10, align 4, !tbaa !4
  store i32 %3, ptr %11, align 4, !tbaa !4
  store ptr %4, ptr %12, align 8, !tbaa !27
  store i32 %5, ptr %13, align 4, !tbaa !4
  call void @llvm.lifetime.start.p0(i64 8, ptr %14) #10
  %20 = getelementptr inbounds nuw %struct.pollfd, ptr %14, i32 0, i32 0
  %21 = load i32, ptr %8, align 4, !tbaa !4
  store i32 %21, ptr %20, align 4, !tbaa !8
  %22 = getelementptr inbounds nuw %struct.pollfd, ptr %14, i32 0, i32 1
  store i16 4, ptr %22, align 4, !tbaa !11
  %23 = getelementptr inbounds nuw %struct.pollfd, ptr %14, i32 0, i32 2
  store i16 0, ptr %23, align 2, !tbaa !12
  call void @llvm.lifetime.start.p0(i64 4, ptr %15) #10
  call void @llvm.lifetime.start.p0(i64 4, ptr %16) #10
  %24 = load i32, ptr %8, align 4, !tbaa !4
  %25 = call i32 @ff_socket_nonblock(i32 noundef %24, i32 noundef 1)
  %26 = icmp slt i32 %25, 0
  br i1 %26, label %27, label %29

27:                                               ; preds = %6
  %28 = load ptr, ptr %12, align 8, !tbaa !27
  call void (ptr, i32, ptr, ...) @av_log(ptr noundef %28, i32 noundef 48, ptr noundef @.str.2)
  br label %29

29:                                               ; preds = %27, %6
  br label %30

30:                                               ; preds = %47, %29
  %31 = load i32, ptr %8, align 4, !tbaa !4
  %32 = load ptr, ptr %9, align 8, !tbaa !18
  %33 = load i32, ptr %10, align 4, !tbaa !4
  %34 = call i32 @connect(i32 noundef %31, ptr noundef %32, i32 noundef %33)
  store i32 %34, ptr %15, align 4, !tbaa !4
  %35 = icmp ne i32 %34, 0
  br i1 %35, label %36, label %94

36:                                               ; preds = %30
  %37 = call ptr @__errno_location() #11
  %38 = load i32, ptr %37, align 4, !tbaa !4
  %39 = sub nsw i32 0, %38
  store i32 %39, ptr %15, align 4, !tbaa !4
  %40 = load i32, ptr %15, align 4, !tbaa !4
  switch i32 %40, label %92 [
    i32 -4, label %41
    i32 -115, label %48
    i32 -11, label %48
  ]

41:                                               ; preds = %36
  %42 = load ptr, ptr %12, align 8, !tbaa !27
  %43 = getelementptr inbounds nuw %struct.URLContext, ptr %42, i32 0, i32 8
  %44 = call i32 @ff_check_interrupt(ptr noundef %43)
  %45 = icmp ne i32 %44, 0
  br i1 %45, label %46, label %47

46:                                               ; preds = %41
  store i32 -1414092869, ptr %7, align 4
  store i32 1, ptr %17, align 4
  br label %96

47:                                               ; preds = %41
  br label %30, !llvm.loop !33

48:                                               ; preds = %36, %36
  %49 = load i32, ptr %11, align 4, !tbaa !4
  %50 = load ptr, ptr %12, align 8, !tbaa !27
  %51 = getelementptr inbounds nuw %struct.URLContext, ptr %50, i32 0, i32 8
  %52 = call i32 @ff_poll_interrupt(ptr noundef %14, i64 noundef 1, i32 noundef %49, ptr noundef %51)
  store i32 %52, ptr %15, align 4, !tbaa !4
  %53 = load i32, ptr %15, align 4, !tbaa !4
  %54 = icmp slt i32 %53, 0
  br i1 %54, label %55, label %57

55:                                               ; preds = %48
  %56 = load i32, ptr %15, align 4, !tbaa !4
  store i32 %56, ptr %7, align 4
  store i32 1, ptr %17, align 4
  br label %96

57:                                               ; preds = %48
  store i32 4, ptr %16, align 4, !tbaa !4
  %58 = load i32, ptr %8, align 4, !tbaa !4
  %59 = call i32 @getsockopt(i32 noundef %58, i32 noundef 1, i32 noundef 4, ptr noundef %15, ptr noundef %16) #10
  %60 = icmp ne i32 %59, 0
  br i1 %60, label %61, label %66

61:                                               ; preds = %57
  %62 = call ptr @__errno_location() #11
  %63 = load i32, ptr %62, align 4, !tbaa !4
  %64 = sub nsw i32 0, %63
  %65 = sub nsw i32 0, %64
  store i32 %65, ptr %15, align 4, !tbaa !4
  br label %66

66:                                               ; preds = %61, %57
  %67 = load i32, ptr %15, align 4, !tbaa !4
  %68 = icmp ne i32 %67, 0
  br i1 %68, label %69, label %91

69:                                               ; preds = %66
  %70 = load i32, ptr %15, align 4, !tbaa !4
  %71 = sub nsw i32 0, %70
  store i32 %71, ptr %15, align 4, !tbaa !4
  %72 = load i32, ptr %13, align 4, !tbaa !4
  %73 = icmp ne i32 %72, 0
  br i1 %73, label %74, label %82

74:                                               ; preds = %69
  %75 = load ptr, ptr %12, align 8, !tbaa !27
  %76 = load ptr, ptr %12, align 8, !tbaa !27
  %77 = getelementptr inbounds nuw %struct.URLContext, ptr %76, i32 0, i32 3
  %78 = load ptr, ptr %77, align 8, !tbaa !34
  call void @llvm.memset.p0.i64(ptr align 1 %18, i8 0, i64 64, i1 false)
  %79 = getelementptr inbounds [64 x i8], ptr %18, i64 0, i64 0
  %80 = load i32, ptr %15, align 4, !tbaa !4
  %81 = call ptr @av_make_error_string(ptr noundef %79, i64 noundef 64, i32 noundef %80)
  call void (ptr, i32, ptr, ...) @av_log(ptr noundef %75, i32 noundef 24, ptr noundef @.str.3, ptr noundef %78, ptr noundef %81)
  br label %90

82:                                               ; preds = %69
  %83 = load ptr, ptr %12, align 8, !tbaa !27
  %84 = load ptr, ptr %12, align 8, !tbaa !27
  %85 = getelementptr inbounds nuw %struct.URLContext, ptr %84, i32 0, i32 3
  %86 = load ptr, ptr %85, align 8, !tbaa !34
  call void @llvm.memset.p0.i64(ptr align 1 %19, i8 0, i64 64, i1 false)
  %87 = getelementptr inbounds [64 x i8], ptr %19, i64 0, i64 0
  %88 = load i32, ptr %15, align 4, !tbaa !4
  %89 = call ptr @av_make_error_string(ptr noundef %87, i64 noundef 64, i32 noundef %88)
  call void (ptr, i32, ptr, ...) @av_log(ptr noundef %83, i32 noundef 16, ptr noundef @.str.4, ptr noundef %86, ptr noundef %89)
  br label %90

90:                                               ; preds = %82, %74
  br label %91

91:                                               ; preds = %90, %66
  br label %92

92:                                               ; preds = %36, %91
  %93 = load i32, ptr %15, align 4, !tbaa !4
  store i32 %93, ptr %7, align 4
  store i32 1, ptr %17, align 4
  br label %96

94:                                               ; preds = %30
  %95 = load i32, ptr %15, align 4, !tbaa !4
  store i32 %95, ptr %7, align 4
  store i32 1, ptr %17, align 4
  br label %96

96:                                               ; preds = %94, %92, %55, %46
  call void @llvm.lifetime.end.p0(i64 4, ptr %16) #10
  call void @llvm.lifetime.end.p0(i64 4, ptr %15) #10
  call void @llvm.lifetime.end.p0(i64 8, ptr %14) #10
  %97 = load i32, ptr %7, align 4
  ret i32 %97
}