; Function Attrs: nounwind uwtable
define i32 @ff_listen_connect(i32 noundef %0, ptr noundef %1, i32 noundef %2, i32 noundef %3, ptr noundef %4, i32 noundef %5) local_unnamed_addr #1 {
  %7 = alloca %struct.pollfd, align 4
  %8 = alloca i32, align 4
  %9 = alloca i32, align 4
  %10 = alloca [64 x i8], align 1
  %11 = alloca [64 x i8], align 1
  call void @llvm.lifetime.start.p0(i64 8, ptr nonnull %7) #12
  store i32 %0, ptr %7, align 4, !tbaa !4
  %12 = getelementptr inbounds nuw i8, ptr %7, i64 4
  store i16 4, ptr %12, align 4, !tbaa !10
  %13 = getelementptr inbounds nuw i8, ptr %7, i64 6
  store i16 0, ptr %13, align 2, !tbaa !11
  call void @llvm.lifetime.start.p0(i64 4, ptr nonnull %8) #12
  call void @llvm.lifetime.start.p0(i64 4, ptr nonnull %9) #12
  %14 = tail call i32 @ff_socket_nonblock(i32 noundef %0, i32 noundef 1) #12
  %15 = icmp slt i32 %14, 0
  br i1 %15, label %16, label %17

16:                                               ; preds = %6
  tail call void (ptr, i32, ptr, ...) @av_log(ptr noundef %4, i32 noundef 48, ptr noundef nonnull @.str.2) #12
  br label %17

17:                                               ; preds = %16, %6
  %18 = getelementptr inbounds nuw i8, ptr %4, i64 48
  br label %19

19:                                               ; preds = %25, %17
  %20 = tail call i32 @connect(i32 noundef %0, ptr noundef %1, i32 noundef %2) #12
  %.not = icmp eq i32 %20, 0
  br i1 %.not, label %.loopexit, label %21

21:                                               ; preds = %19
  %22 = tail call ptr @__errno_location() #13
  %23 = load i32, ptr %22, align 4, !tbaa !12
  %24 = sub nsw i32 0, %23
  store i32 %24, ptr %8, align 4, !tbaa !12
  switch i32 %23, label %.loopexit22 [
    i32 4, label %25
    i32 115, label %27
    i32 11, label %27
  ]

25:                                               ; preds = %21
  %26 = tail call i32 @ff_check_interrupt(ptr noundef nonnull %18) #12
  %.not21 = icmp eq i32 %26, 0
  br i1 %.not21, label %19, label %.loopexit, !llvm.loop !21

27:                                               ; preds = %21, %21
  %28 = call fastcc i32 @ff_poll_interrupt(ptr noundef %7, i64 noundef 1, i32 noundef %3, ptr noundef nonnull %18)
  store i32 %28, ptr %8, align 4, !tbaa !12
  %29 = icmp slt i32 %28, 0
  br i1 %29, label %.loopexit, label %30

30:                                               ; preds = %27
  store i32 4, ptr %9, align 4, !tbaa !12
  %31 = call i32 @getsockopt(i32 noundef %0, i32 noundef 1, i32 noundef 4, ptr noundef nonnull %8, ptr noundef nonnull %9) #12
  %.not18 = icmp eq i32 %31, 0
  br i1 %.not18, label %thread-pre-split, label %32

32:                                               ; preds = %30
  %33 = load i32, ptr %22, align 4, !tbaa !12
  store i32 %33, ptr %8, align 4, !tbaa !12
  br label %34

thread-pre-split:                                 ; preds = %30
  %.pr = load i32, ptr %8, align 4, !tbaa !12
  br label %34

34:                                               ; preds = %thread-pre-split, %32
  %35 = phi i32 [ %.pr, %thread-pre-split ], [ %33, %32 ]
  %.not19 = icmp eq i32 %35, 0
  br i1 %.not19, label %.loopexit22, label %36

36:                                               ; preds = %34
  %37 = sub nsw i32 0, %35
  store i32 %37, ptr %8, align 4, !tbaa !12
  %.not20 = icmp eq i32 %5, 0
  %38 = getelementptr inbounds nuw i8, ptr %4, i64 24
  %39 = load ptr, ptr %38, align 8, !tbaa !22
  br i1 %.not20, label %42, label %40

40:                                               ; preds = %36
  call void @llvm.memset.p0.i64(ptr noundef nonnull align 1 dereferenceable(64) %10, i8 0, i64 64, i1 false)
  %41 = call i32 @av_strerror(i32 noundef %37, ptr noundef nonnull %10, i64 noundef 64) #12
  call void (ptr, i32, ptr, ...) @av_log(ptr noundef nonnull %4, i32 noundef 24, ptr noundef nonnull @.str.3, ptr noundef %39, ptr noundef nonnull %10) #12
  br label %.loopexit22

42:                                               ; preds = %36
  call void @llvm.memset.p0.i64(ptr noundef nonnull align 1 dereferenceable(64) %11, i8 0, i64 64, i1 false)
  %43 = call i32 @av_strerror(i32 noundef %37, ptr noundef nonnull %11, i64 noundef 64) #12
  call void (ptr, i32, ptr, ...) @av_log(ptr noundef nonnull %4, i32 noundef 16, ptr noundef nonnull @.str.4, ptr noundef %39, ptr noundef nonnull %11) #12
  br label %.loopexit22

.loopexit22:                                      ; preds = %21, %34, %42, %40
  %44 = load i32, ptr %8, align 4, !tbaa !12
  br label %.loopexit

.loopexit:                                        ; preds = %19, %25, %27, %.loopexit22
  %.0 = phi i32 [ %44, %.loopexit22 ], [ %28, %27 ], [ 0, %19 ], [ -1414092869, %25 ]
  call void @llvm.lifetime.end.p0(i64 4, ptr nonnull %9) #12
  call void @llvm.lifetime.end.p0(i64 4, ptr nonnull %8) #12
  call void @llvm.lifetime.end.p0(i64 8, ptr nonnull %7) #12
  ret i32 %.0
}